target datalayout = "e-m:e-p270:32:32-p271:32:32-p272:64:64-i64:64-i128:128-f80:128-n8:16:32:64-S128"
target triple = "x86_64-unknown-linux-gnu"

%struct.Visitor = type { ptr, ptr, ptr, ptr, ptr, ptr, ptr, ptr, ptr, ptr, ptr, ptr, ptr, ptr, ptr, ptr, ptr, ptr, ptr, ptr, i32, %struct.CompatPolicy, ptr, ptr }
%struct.CompatPolicy = type { i8, i32, i8, i32, i8, i32, i8, i32 }
%struct.timeval = type { i64, i64 }

@.str.1 = private unnamed_addr constant [31 x i8] c"../qemu/qapi/qapi-visit-core.c\00", align 1
@.str.3 = private unnamed_addr constant [36 x i8] c"!(v->type & VISITOR_OUTPUT) || *obj\00", align 1
@.str.4 = private unnamed_addr constant [12 x i8] c"ok != !*obj\00", align 1
@.str.8 = private unnamed_addr constant [40 x i8] c"obj && size >= sizeof(GenericAlternate)\00", align 1
@__PRETTY_FUNCTION__.visit_start_alternate = private unnamed_addr constant [92 x i8] c"_Bool visit_start_alternate(Visitor *, const char *, GenericAlternate **, size_t, Error **)\00", align 1
@.str.9 = private unnamed_addr constant [27 x i8] c"!(v->type & VISITOR_INPUT)\00", align 1
@trace_events_enabled_count = external global i32, align 4
@message_with_timestamp = external global i8, align 1
@qemu_loglevel = external global i32, align 4
@_TRACE_VISIT_START_ALTERNATE_DSTATE = external global i16, align 2
@.str.37 = private unnamed_addr constant [65 x i8] c"%d@%zu.%06zu:visit_start_alternate v=%p name=%s obj=%p size=%zu\0A\00", align 1
@.str.38 = private unnamed_addr constant [52 x i8] c"visit_start_alternate v=%p name=%s obj=%p size=%zu\0A\00", align 1

; Function Attrs: nounwind sspstrong uwtable
define internal zeroext i1 @qemu_loglevel_mask(i32 noundef %mask) #0 {
entry:
  %mask.addr = alloca i32, align 4
  store i32 %mask, ptr %mask.addr, align 4
  %0 = load i32, ptr @qemu_loglevel, align 4
  %1 = load i32, ptr %mask.addr, align 4
  %and = and i32 %0, %1
  %cmp = icmp ne i32 %and, 0
  ret i1 %cmp
}

; Function Attrs: nounwind sspstrong uwtable
define internal void @_nocheck__trace_visit_start_alternate(ptr noundef %v, ptr noundef %name, ptr noundef %obj, i64 noundef %size) #0 {
entry:
  %v.addr = alloca ptr, align 8
  %name.addr = alloca ptr, align 8
  %obj.addr = alloca ptr, align 8
  %size.addr = alloca i64, align 8
  %_now = alloca %struct.timeval, align 8
  store ptr %v, ptr %v.addr, align 8
  store ptr %name, ptr %name.addr, align 8
  store ptr %obj, ptr %obj.addr, align 8
  store i64 %size, ptr %size.addr, align 8
  %0 = load i32, ptr @trace_events_enabled_count, align 4
  %tobool = icmp ne i32 %0, 0
  %lnot = xor i1 %tobool, true
  %lnot1 = xor i1 %lnot, true
  %lnot.ext = zext i1 %lnot1 to i32
  %conv = sext i32 %lnot.ext to i64
  %tobool2 = icmp ne i64 %conv, 0
  br i1 %tobool2, label %land.lhs.true, label %if.end11

land.lhs.true:                                    ; preds = %entry
  %1 = load i16, ptr @_TRACE_VISIT_START_ALTERNATE_DSTATE, align 2
  %conv3 = zext i16 %1 to i32
  %tobool4 = icmp ne i32 %conv3, 0
  br i1 %tobool4, label %land.lhs.true5, label %if.end11

land.lhs.true5:                                   ; preds = %land.lhs.true
  %call = call zeroext i1 @qemu_loglevel_mask(i32 noundef 32768)
  br i1 %call, label %if.then, label %if.end11

if.then:                                          ; preds = %land.lhs.true5
  %2 = load i8, ptr @message_with_timestamp, align 1
  %tobool7 = trunc i8 %2 to i1
  br i1 %tobool7, label %if.then8, label %if.else

if.then8:                                         ; preds = %if.then
  %call9 = call i32 @gettimeofday(ptr noundef %_now, ptr noundef null) #6
  %call10 = call i32 @qemu_get_thread_id()
  %tv_sec = getelementptr inbounds %struct.timeval, ptr %_now, i32 0, i32 0
  %3 = load i64, ptr %tv_sec, align 8
  %tv_usec = getelementptr inbounds %struct.timeval, ptr %_now, i32 0, i32 1
  %4 = load i64, ptr %tv_usec, align 8
  %5 = load ptr, ptr %v.addr, align 8
  %6 = load ptr, ptr %name.addr, align 8
  %7 = load ptr, ptr %obj.addr, align 8
  %8 = load i64, ptr %size.addr, align 8
  call void (ptr, ...) @qemu_log(ptr noundef @.str.37, i32 noundef %call10, i64 noundef %3, i64 noundef %4, ptr noundef %5, ptr noundef %6, ptr noundef %7, i64 noundef %8)
  br label %if.end

if.else:                                          ; preds = %if.then
  %9 = load ptr, ptr %v.addr, align 8
  %10 = load ptr, ptr %name.addr, align 8
  %11 = load ptr, ptr %obj.addr, align 8
  %12 = load i64, ptr %size.addr, align 8
  call void (ptr, ...) @qemu_log(ptr noundef @.str.38, ptr noundef %9, ptr noundef %10, ptr noundef %11, i64 noundef %12)
  br label %if.end

if.end:                                           ; preds = %if.else, %if.then8
  br label %if.end11

if.end11:                                         ; preds = %if.end, %land.lhs.true5, %land.lhs.true, %entry
  ret void
}

; Function Attrs: nounwind sspstrong uwtable
define internal void @trace_visit_start_alternate(ptr noundef %v, ptr noundef %name, ptr noundef %obj, i64 noundef %size) #0 {
entry:
  %v.addr = alloca ptr, align 8
  %name.addr = alloca ptr, align 8
  %obj.addr = alloca ptr, align 8
  %size.addr = alloca i64, align 8
  store ptr %v, ptr %v.addr, align 8
  store ptr %name, ptr %name.addr, align 8
  store ptr %obj, ptr %obj.addr, align 8
  store i64 %size, ptr %size.addr, align 8
  %0 = load ptr, ptr %v.addr, align 8
  %1 = load ptr, ptr %name.addr, align 8
  %2 = load ptr, ptr %obj.addr, align 8
  %3 = load i64, ptr %size.addr, align 8
  call void @_nocheck__trace_visit_start_alternate(ptr noundef %0, ptr noundef %1, ptr noundef %2, i64 noundef %3)
  ret void
}

; Function Attrs: nounwind sspstrong uwtable
define dso_local zeroext i1 @visit_start_alternate(ptr noundef %v, ptr noundef %name, ptr noundef %obj, i64 noundef %size, ptr noundef %errp) #0 {
entry:
  %retval = alloca i1, align 1
  %v.addr = alloca ptr, align 8
  %name.addr = alloca ptr, align 8
  %obj.addr = alloca ptr, align 8
  %size.addr = alloca i64, align 8
  %errp.addr = alloca ptr, align 8
  %ok = alloca i8, align 1
  store ptr %v, ptr %v.addr, align 8
  store ptr %name, ptr %name.addr, align 8
  store ptr %obj, ptr %obj.addr, align 8
  store i64 %size, ptr %size.addr, align 8
  store ptr %errp, ptr %errp.addr, align 8
  %0 = load ptr, ptr %obj.addr, align 8
  %tobool = icmp ne ptr %0, null
  br i1 %tobool, label %land.lhs.true, label %if.else

land.lhs.true:                                    ; preds = %entry
  %1 = load i64, ptr %size.addr, align 8
  %cmp = icmp uge i64 %1, 4
  br i1 %cmp, label %if.then, label %if.else

if.then:                                          ; preds = %land.lhs.true
  br label %if.end

if.else:                                          ; preds = %land.lhs.true, %entry
  call void @__assert_fail(ptr noundef @.str.8, ptr noundef @.str.1, i32 noundef 112, ptr noundef @__PRETTY_FUNCTION__.visit_start_alternate) #5
  unreachable

if.end:                                           ; preds = %if.then
  %2 = load ptr, ptr %v.addr, align 8
  %type = getelementptr inbounds %struct.Visitor, ptr %2, i32 0, i32 20
  %3 = load i32, ptr %type, align 8
  %and = and i32 %3, 2
  %tobool1 = icmp ne i32 %and, 0
  br i1 %tobool1, label %lor.lhs.false, label %if.then3

lor.lhs.false:                                    ; preds = %if.end
  %4 = load ptr, ptr %obj.addr, align 8
  %5 = load ptr, ptr %4, align 8
  %tobool2 = icmp ne ptr %5, null
  br i1 %tobool2, label %if.then3, label %if.else4

if.then3:                                         ; preds = %lor.lhs.false, %if.end
  br label %if.end5

if.else4:                                         ; preds = %lor.lhs.false
  call void @__assert_fail(ptr noundef @.str.3, ptr noundef @.str.1, i32 noundef 113, ptr noundef @__PRETTY_FUNCTION__.visit_start_alternate) #5
  unreachable

if.end5:                                          ; preds = %if.then3
  %6 = load ptr, ptr %v.addr, align 8
  %7 = load ptr, ptr %name.addr, align 8
  %8 = load ptr, ptr %obj.addr, align 8
  %9 = load i64, ptr %size.addr, align 8
  call void @trace_visit_start_alternate(ptr noundef %6, ptr noundef %7, ptr noundef %8, i64 noundef %9)
  %10 = load ptr, ptr %v.addr, align 8
  %start_alternate = getelementptr inbounds %struct.Visitor, ptr %10, i32 0, i32 7
  %11 = load ptr, ptr %start_alternate, align 8
  %tobool6 = icmp ne ptr %11, null
  br i1 %tobool6, label %if.end14, label %if.then7

if.then7:                                         ; preds = %if.end5
  %12 = load ptr, ptr %v.addr, align 8
  %type8 = getelementptr inbounds %struct.Visitor, ptr %12, i32 0, i32 20
  %13 = load i32, ptr %type8, align 8
  %and9 = and i32 %13, 1
  %tobool10 = icmp ne i32 %and9, 0
  br i1 %tobool10, label %if.else12, label %if.then11

if.then11:                                        ; preds = %if.then7
  br label %if.end13

if.else12:                                        ; preds = %if.then7
  call void @__assert_fail(ptr noundef @.str.9, ptr noundef @.str.1, i32 noundef 116, ptr noundef @__PRETTY_FUNCTION__.visit_start_alternate) #5
  unreachable

if.end13:                                         ; preds = %if.then11
  store i1 true, ptr %retval, align 1
  br label %return

if.end14:                                         ; preds = %if.end5
  %14 = load ptr, ptr %v.addr, align 8
  %start_alternate15 = getelementptr inbounds %struct.Visitor, ptr %14, i32 0, i32 7
  %15 = load ptr, ptr %start_alternate15, align 8
  %16 = load ptr, ptr %v.addr, align 8
  %17 = load ptr, ptr %name.addr, align 8
  %18 = load ptr, ptr %obj.addr, align 8
  %19 = load i64, ptr %size.addr, align 8
  %20 = load ptr, ptr %errp.addr, align 8
  %call = call zeroext i1 %15(ptr noundef %16, ptr noundef %17, ptr noundef %18, i64 noundef %19, ptr noundef %20)
  %frombool = zext i1 %call to i8
  store i8 %frombool, ptr %ok, align 1
  %21 = load ptr, ptr %v.addr, align 8
  %type16 = getelementptr inbounds %struct.Visitor, ptr %21, i32 0, i32 20
  %22 = load i32, ptr %type16, align 8
  %and17 = and i32 %22, 1
  %tobool18 = icmp ne i32 %and17, 0
  br i1 %tobool18, label %if.then19, label %if.end27

if.then19:                                        ; preds = %if.end14
  %23 = load i8, ptr %ok, align 1
  %tobool20 = trunc i8 %23 to i1
  %conv = zext i1 %tobool20 to i32
  %24 = load ptr, ptr %obj.addr, align 8
  %25 = load ptr, ptr %24, align 8
  %tobool21 = icmp ne ptr %25, null
  %lnot = xor i1 %tobool21, true
  %lnot.ext = zext i1 %lnot to i32
  %cmp22 = icmp ne i32 %conv, %lnot.ext
  br i1 %cmp22, label %if.then24, label %if.else25

if.then24:                                        ; preds = %if.then19
  br label %if.end26

if.else25:                                        ; preds = %if.then19
  call void @__assert_fail(ptr noundef @.str.4, ptr noundef @.str.1, i32 noundef 121, ptr noundef @__PRETTY_FUNCTION__.visit_start_alternate) #5
  unreachable

if.end26:                                         ; preds = %if.then24
  br label %if.end27

if.end27:                                         ; preds = %if.end26, %if.end14
  %26 = load i8, ptr %ok, align 1
  %tobool28 = trunc i8 %26 to i1
  store i1 %tobool28, ptr %retval, align 1
  br label %return

return:                                           ; preds = %if.end27, %if.end13
  %27 = load i1, ptr %retval, align 1
  ret i1 %27
}