; Function Attrs: nounwind sspstrong uwtable
define dso_local zeroext i1 @visit_start_alternate(ptr noundef %v, ptr noundef %name, ptr noundef %obj, i64 noundef %size, ptr noundef %errp) local_unnamed_addr #0 {
entry:
  %_now.i.i = alloca %struct.timeval, align 8
  %tobool = icmp ne ptr %obj, null
  %cmp = icmp ugt i64 %size, 3
  %or.cond = and i1 %tobool, %cmp
  br i1 %or.cond, label %if.end, label %if.else

if.else:                                          ; preds = %entry
  tail call void @__assert_fail(ptr noundef nonnull @.str.8, ptr noundef nonnull @.str.1, i32 noundef 112, ptr noundef nonnull @__PRETTY_FUNCTION__.visit_start_alternate) #9
  unreachable

if.end:                                           ; preds = %entry
  %type = getelementptr inbounds nuw i8, ptr %v, i64 160
  %0 = load i32, ptr %type, align 8
  %and = and i32 %0, 2
  %tobool1.not = icmp eq i32 %and, 0
  br i1 %tobool1.not, label %if.end5, label %lor.lhs.false

lor.lhs.false:                                    ; preds = %if.end
  %1 = load ptr, ptr %obj, align 8
  %tobool2.not = icmp eq ptr %1, null
  br i1 %tobool2.not, label %if.else4, label %if.end5

if.else4:                                         ; preds = %lor.lhs.false
  tail call void @__assert_fail(ptr noundef nonnull @.str.3, ptr noundef nonnull @.str.1, i32 noundef 113, ptr noundef nonnull @__PRETTY_FUNCTION__.visit_start_alternate) #9
  unreachable

if.end5:                                          ; preds = %if.end, %lor.lhs.false
  call void @llvm.lifetime.start.p0(i64 16, ptr nonnull %_now.i.i)
  %2 = load i32, ptr @trace_events_enabled_count, align 4
  %tobool.i.i = icmp ne i32 %2, 0
  %3 = load i16, ptr @_TRACE_VISIT_START_ALTERNATE_DSTATE, align 2
  %tobool4.i.i = icmp ne i16 %3, 0
  %or.cond.i.i = select i1 %tobool.i.i, i1 %tobool4.i.i, i1 false
  br i1 %or.cond.i.i, label %land.lhs.true5.i.i, label %trace_visit_start_alternate.exit

land.lhs.true5.i.i:                               ; preds = %if.end5
  %4 = load i32, ptr @qemu_loglevel, align 4
  %and.i.i.i = and i32 %4, 32768
  %cmp.i.not.i.i = icmp eq i32 %and.i.i.i, 0
  br i1 %cmp.i.not.i.i, label %trace_visit_start_alternate.exit, label %if.then.i.i

if.then.i.i:                                      ; preds = %land.lhs.true5.i.i
  %5 = load i8, ptr @message_with_timestamp, align 1
  %tobool7.i.i = trunc i8 %5 to i1
  br i1 %tobool7.i.i, label %if.then8.i.i, label %if.else.i.i

if.then8.i.i:                                     ; preds = %if.then.i.i
  %call9.i.i = call i32 @gettimeofday(ptr noundef nonnull %_now.i.i, ptr noundef null) #10
  %call10.i.i = tail call i32 @qemu_get_thread_id() #10
  %6 = load i64, ptr %_now.i.i, align 8
  %tv_usec.i.i = getelementptr inbounds nuw i8, ptr %_now.i.i, i64 8
  %7 = load i64, ptr %tv_usec.i.i, align 8
  tail call void (ptr, ...) @qemu_log(ptr noundef nonnull @.str.37, i32 noundef %call10.i.i, i64 noundef %6, i64 noundef %7, ptr noundef nonnull %v, ptr noundef %name, ptr noundef nonnull %obj, i64 noundef range(i64 4, 0) %size) #10
  br label %trace_visit_start_alternate.exit

if.else.i.i:                                      ; preds = %if.then.i.i
  tail call void (ptr, ...) @qemu_log(ptr noundef nonnull @.str.38, ptr noundef nonnull %v, ptr noundef %name, ptr noundef nonnull %obj, i64 noundef range(i64 4, 0) %size) #10
  br label %trace_visit_start_alternate.exit

trace_visit_start_alternate.exit:                 ; preds = %if.end5, %land.lhs.true5.i.i, %if.then8.i.i, %if.else.i.i
  call void @llvm.lifetime.end.p0(i64 16, ptr nonnull %_now.i.i)
  %start_alternate = getelementptr inbounds nuw i8, ptr %v, i64 56
  %8 = load ptr, ptr %start_alternate, align 8
  %tobool6.not = icmp eq ptr %8, null
  br i1 %tobool6.not, label %if.then7, label %if.end14

if.then7:                                         ; preds = %trace_visit_start_alternate.exit
  %9 = load i32, ptr %type, align 8
  %and9 = and i32 %9, 1
  %tobool10.not = icmp eq i32 %and9, 0
  br i1 %tobool10.not, label %return, label %if.else12

if.else12:                                        ; preds = %if.then7
  tail call void @__assert_fail(ptr noundef nonnull @.str.9, ptr noundef nonnull @.str.1, i32 noundef 116, ptr noundef nonnull @__PRETTY_FUNCTION__.visit_start_alternate) #9
  unreachable

if.end14:                                         ; preds = %trace_visit_start_alternate.exit
  %call = tail call zeroext i1 %8(ptr noundef nonnull %v, ptr noundef %name, ptr noundef nonnull %obj, i64 noundef %size, ptr noundef %errp) #10
  %10 = load i32, ptr %type, align 8
  %and17 = and i32 %10, 1
  %tobool18.not = icmp eq i32 %and17, 0
  br i1 %tobool18.not, label %return, label %if.then19

if.then19:                                        ; preds = %if.end14
  %11 = load ptr, ptr %obj, align 8
  %12 = icmp ne ptr %11, null
  %cmp22.not = xor i1 %call, %12
  br i1 %cmp22.not, label %if.else25, label %return

if.else25:                                        ; preds = %if.then19
  tail call void @__assert_fail(ptr noundef nonnull @.str.4, ptr noundef nonnull @.str.1, i32 noundef 121, ptr noundef nonnull @__PRETTY_FUNCTION__.visit_start_alternate) #9
  unreachable

return:                                           ; preds = %if.end14, %if.then19, %if.then7
  %retval.0 = phi i1 [ true, %if.then7 ], [ %call, %if.then19 ], [ %call, %if.end14 ]
  ret i1 %retval.0
}